(dp0
S'Mode'
p1
(dp2
S'MasVnrType'
p3
S'None'
p4
sS'Neighborhood'
p5
S'NAmes'
p6
sS'GarageType'
p7
S'Attchd'
p8
sS'SaleCondition'
p9
S'Normal'
p10
sS'RoofStyle'
p11
S'Gable'
p12
sS'BldgType'
p13
S'1Fam'
p14
sS'GarageFinish'
p15
S'Unf'
p16
sS'MSZoning'
p17
S'RL'
p18
sS'HouseStyle'
p19
S'1Story'
p20
sS'Condition2'
p21
S'Norm'
p22
sS'Condition1'
p23
S'Norm'
p24
ssS'Label'
p25
(dp26
g3
(lp27
S'BrkFace'
p28
aS'None'
p29
aS'Stone'
p30
aS'BrkCmn'
p31
asg5
(lp32
S'CollgCr'
p33
aS'Veenker'
p34
aS'Crawfor'
p35
aS'NoRidge'
p36
aS'Mitchel'
p37
aS'Somerst'
p38
aS'NWAmes'
p39
aS'OldTown'
p40
aS'BrkSide'
p41
aS'Sawyer'
p42
aS'NridgHt'
p43
aS'NAmes'
p44
aS'SawyerW'
p45
aS'IDOTRR'
p46
aS'MeadowV'
p47
aS'Edwards'
p48
aS'Timber'
p49
aS'Gilbert'
p50
aS'StoneBr'
p51
aS'ClearCr'
p52
aS'NPkVill'
p53
aS'Blmngtn'
p54
aS'BrDale'
p55
aS'SWISU'
p56
aS'Blueste'
p57
asg7
(lp58
S'Attchd'
p59
aS'Detchd'
p60
aS'BuiltIn'
p61
aS'CarPort'
p62
aS'Basment'
p63
aS'2Types'
p64
asg9
(lp65
S'Normal'
p66
aS'Abnorml'
p67
aS'Partial'
p68
aS'AdjLand'
p69
aS'Alloca'
p70
aS'Family'
p71
asg11
(lp72
S'Gable'
p73
aS'Hip'
p74
aS'Gambrel'
p75
aS'Mansard'
p76
aS'Flat'
p77
aS'Shed'
p78
asg13
(lp79
S'1Fam'
p80
aS'2fmCon'
p81
aS'Duplex'
p82
aS'TwnhsE'
p83
aS'Twnhs'
p84
asg15
(lp85
S'RFn'
p86
aS'Unf'
p87
aS'Fin'
p88
asg17
(lp89
S'RL'
p90
aS'RM'
p91
aS'C (all)'
p92
aS'FV'
p93
aS'RH'
p94
asg19
(lp95
S'2Story'
p96
aS'1Story'
p97
aS'1.5Fin'
p98
aS'1.5Unf'
p99
aS'SFoyer'
p100
aS'SLvl'
p101
aS'2.5Unf'
p102
aS'2.5Fin'
p103
asg21
(lp104
S'Norm'
p105
aS'Artery'
p106
aS'RRNn'
p107
aS'Feedr'
p108
aS'PosN'
p109
aS'PosA'
p110
aS'RRAn'
p111
aS'RRAe'
p112
asg23
(lp113
S'Norm'
p114
aS'Feedr'
p115
aS'PosN'
p116
aS'Artery'
p117
aS'RRAe'
p118
aS'RRNn'
p119
aS'RRAn'
p120
aS'PosA'
p121
aS'RRNe'
p122
ass.